; Function Attrs: mustprogress uwtable
define void @_ZN2mu14ParserByteCodeC2ERKS0_(ptr noundef nonnull align 8 dereferenceable(48) initializes((16, 40)) %0, ptr noundef nonnull align 8 dereferenceable(48) %1) unnamed_addr #9 align 2 personality ptr @__gxx_personality_v0 {
  %3 = getelementptr inbounds nuw i8, ptr %0, i64 16
  tail call void @llvm.memset.p0.i64(ptr noundef nonnull align 8 dereferenceable(24) %3, i8 0, i64 24, i1 false)
  %4 = icmp eq ptr %0, %1
  br i1 %4, label %_ZN2mu14ParserByteCode6AssignERKS0_.exit, label %5

5:                                                ; preds = %2
  %6 = load i32, ptr %1, align 8, !tbaa !4
  store i32 %6, ptr %0, align 8, !tbaa !4
  %7 = getelementptr inbounds nuw i8, ptr %1, i64 16
  %8 = invoke noundef nonnull align 8 dereferenceable(24) ptr @_ZNSt6vectorIN2mu6STokenESaIS1_EEaSERKS3_(ptr noundef nonnull align 8 dereferenceable(24) %3, ptr noundef nonnull align 8 dereferenceable(24) %7)
          to label %.noexc unwind label %15

.noexc:                                           ; preds = %5
  %9 = getelementptr inbounds nuw i8, ptr %1, i64 8
  %10 = load i64, ptr %9, align 8, !tbaa !21
  %11 = getelementptr inbounds nuw i8, ptr %0, i64 8
  store i64 %10, ptr %11, align 8, !tbaa !21
  %12 = getelementptr inbounds nuw i8, ptr %1, i64 40
  %13 = load i8, ptr %12, align 8, !tbaa !17, !range !22, !noundef !23
  %14 = getelementptr inbounds nuw i8, ptr %0, i64 40
  store i8 %13, ptr %14, align 8, !tbaa !17
  br label %_ZN2mu14ParserByteCode6AssignERKS0_.exit

_ZN2mu14ParserByteCode6AssignERKS0_.exit:         ; preds = %.noexc, %2
  ret void

15:                                               ; preds = %5
  %16 = landingpad { ptr, i32 }
          cleanup
  %17 = load ptr, ptr %3, align 8, !tbaa !18
  %.not.i.i.i = icmp eq ptr %17, null
  br i1 %.not.i.i.i, label %_ZNSt6vectorIN2mu6STokenESaIS1_EED2Ev.exit, label %18

18:                                               ; preds = %15
  tail call void @_ZdlPv(ptr noundef nonnull %17) #27
  br label %_ZNSt6vectorIN2mu6STokenESaIS1_EED2Ev.exit

_ZNSt6vectorIN2mu6STokenESaIS1_EED2Ev.exit:       ; preds = %15, %18
  resume { ptr, i32 } %16
}